#include <math.h>
#include <stdio.h>
#include <stdlib.h>
#include <string.h>

void main()
{
	char *str[1024];
	int n=0,i;
	str[0]=(char*)calloc(101,sizeof(char));
	while(scanf("%s",str[n])!=EOF)
	{
		n=n+1;
		str[n]=(char*)calloc(101,sizeof(char));
	}
	for(i=0;i<n-3;i++)
	{
		if(strcmp(str[i],str[n-2])==0)
			printf("%s ",str[n-1]);
		else
			printf("%s ",str[i]);
	}
	if(strcmp(str[i],str[n-2])==0)
		printf("%s",str[n-1]);
	else
		printf("%s",str[i]);
}
