; ModuleID = '19/1302.c'
source_filename = "19/1302.c"
target datalayout = "e-m:e-p270:32:32-p271:32:32-p272:64:64-i64:64-f80:128-n8:16:32:64-S128"
target triple = "x86_64-pc-linux-gnu"

@.str = private unnamed_addr constant [3 x i8] c"%s\00", align 1
@.str.1 = private unnamed_addr constant [4 x i8] c"%s \00", align 1

; Function Attrs: noinline nounwind uwtable
define dso_local void @main() #0 {
  %1 = alloca [1024 x i8*], align 16
  %2 = alloca i32, align 4
  %3 = alloca i32, align 4
  store i32 0, i32* %2, align 4
  %4 = call noalias i8* @calloc(i64 101, i64 1) #4
  %5 = getelementptr inbounds [1024 x i8*], [1024 x i8*]* %1, i64 0, i64 0
  store i8* %4, i8** %5, align 16
  br label %6

6:                                                ; preds = %13, %0
  %7 = load i32, i32* %2, align 4
  %8 = sext i32 %7 to i64
  %9 = getelementptr inbounds [1024 x i8*], [1024 x i8*]* %1, i64 0, i64 %8
  %10 = load i8*, i8** %9, align 8
  %11 = call i32 (i8*, ...) @__isoc99_scanf(i8* getelementptr inbounds ([3 x i8], [3 x i8]* @.str, i64 0, i64 0), i8* %10)
  %12 = icmp ne i32 %11, -1
  br i1 %12, label %13, label %20

13:                                               ; preds = %6
  %14 = load i32, i32* %2, align 4
  %15 = add nsw i32 %14, 1
  store i32 %15, i32* %2, align 4
  %16 = call noalias i8* @calloc(i64 101, i64 1) #4
  %17 = load i32, i32* %2, align 4
  %18 = sext i32 %17 to i64
  %19 = getelementptr inbounds [1024 x i8*], [1024 x i8*]* %1, i64 0, i64 %18
  store i8* %16, i8** %19, align 8
  br label %6

20:                                               ; preds = %6
  store i32 0, i32* %3, align 4
  br label %21

21:                                               ; preds = %52, %20
  %22 = load i32, i32* %3, align 4
  %23 = load i32, i32* %2, align 4
  %24 = sub nsw i32 %23, 3
  %25 = icmp slt i32 %22, %24
  br i1 %25, label %26, label %55

26:                                               ; preds = %21
  %27 = load i32, i32* %3, align 4
  %28 = sext i32 %27 to i64
  %29 = getelementptr inbounds [1024 x i8*], [1024 x i8*]* %1, i64 0, i64 %28
  %30 = load i8*, i8** %29, align 8
  %31 = load i32, i32* %2, align 4
  %32 = sub nsw i32 %31, 2
  %33 = sext i32 %32 to i64
  %34 = getelementptr inbounds [1024 x i8*], [1024 x i8*]* %1, i64 0, i64 %33
  %35 = load i8*, i8** %34, align 8
  %36 = call i32 @strcmp(i8* %30, i8* %35) #5
  %37 = icmp eq i32 %36, 0
  br i1 %37, label %38, label %45

38:                                               ; preds = %26
  %39 = load i32, i32* %2, align 4
  %40 = sub nsw i32 %39, 1
  %41 = sext i32 %40 to i64
  %42 = getelementptr inbounds [1024 x i8*], [1024 x i8*]* %1, i64 0, i64 %41
  %43 = load i8*, i8** %42, align 8
  %44 = call i32 (i8*, ...) @printf(i8* getelementptr inbounds ([4 x i8], [4 x i8]* @.str.1, i64 0, i64 0), i8* %43)
  br label %51

45:                                               ; preds = %26
  %46 = load i32, i32* %3, align 4
  %47 = sext i32 %46 to i64
  %48 = getelementptr inbounds [1024 x i8*], [1024 x i8*]* %1, i64 0, i64 %47
  %49 = load i8*, i8** %48, align 8
  %50 = call i32 (i8*, ...) @printf(i8* getelementptr inbounds ([4 x i8], [4 x i8]* @.str.1, i64 0, i64 0), i8* %49)
  br label %51

51:                                               ; preds = %45, %38
  br label %52

52:                                               ; preds = %51
  %53 = load i32, i32* %3, align 4
  %54 = add nsw i32 %53, 1
  store i32 %54, i32* %3, align 4
  br label %21

55:                                               ; preds = %21
  %56 = load i32, i32* %3, align 4
  %57 = sext i32 %56 to i64
  %58 = getelementptr inbounds [1024 x i8*], [1024 x i8*]* %1, i64 0, i64 %57
  %59 = load i8*, i8** %58, align 8
  %60 = load i32, i32* %2, align 4
  %61 = sub nsw i32 %60, 2
  %62 = sext i32 %61 to i64
  %63 = getelementptr inbounds [1024 x i8*], [1024 x i8*]* %1, i64 0, i64 %62
  %64 = load i8*, i8** %63, align 8
  %65 = call i32 @strcmp(i8* %59, i8* %64) #5
  %66 = icmp eq i32 %65, 0
  br i1 %66, label %67, label %74

67:                                               ; preds = %55
  %68 = load i32, i32* %2, align 4
  %69 = sub nsw i32 %68, 1
  %70 = sext i32 %69 to i64
  %71 = getelementptr inbounds [1024 x i8*], [1024 x i8*]* %1, i64 0, i64 %70
  %72 = load i8*, i8** %71, align 8
  %73 = call i32 (i8*, ...) @printf(i8* getelementptr inbounds ([3 x i8], [3 x i8]* @.str, i64 0, i64 0), i8* %72)
  br label %80

74:                                               ; preds = %55
  %75 = load i32, i32* %3, align 4
  %76 = sext i32 %75 to i64
  %77 = getelementptr inbounds [1024 x i8*], [1024 x i8*]* %1, i64 0, i64 %76
  %78 = load i8*, i8** %77, align 8
  %79 = call i32 (i8*, ...) @printf(i8* getelementptr inbounds ([3 x i8], [3 x i8]* @.str, i64 0, i64 0), i8* %78)
  br label %80

80:                                               ; preds = %74, %67
  ret void
}

; Function Attrs: nounwind
declare dso_local noalias i8* @calloc(i64, i64) #1

declare dso_local i32 @__isoc99_scanf(i8*, ...) #2

; Function Attrs: nounwind readonly
declare dso_local i32 @strcmp(i8*, i8*) #3

declare dso_local i32 @printf(i8*, ...) #2


!llvm.module.flags = !{!0}
!llvm.ident = !{!1}

!0 = !{i32 1, !"wchar_size", i32 4}
!1 = !{!"clang version 10.0.0-4ubuntu1 "}
